; Function Attrs: nounwind uwtable
define zeroext range(i8 0, 2) i8 @l___private_Lean_Data_Lsp_Communication_0__IO_FS_Stream_isLean3Request(ptr noundef %0) local_unnamed_addr #0 {
  %2 = load ptr, ptr @l___private_Lean_Data_Lsp_Communication_0__IO_FS_Stream_isLean3Request___closed__1, align 8, !tbaa !4
  %3 = tail call ptr @l_Std_Internal_Parsec_String_Parser_run___rarg(ptr noundef %2, ptr noundef %0) #4
  %4 = ptrtoint ptr %3 to i64
  %5 = and i64 %4, 1
  %.not.i39 = icmp eq i64 %5, 0
  br i1 %.not.i39, label %lean_obj_tag.exit.thread, label %lean_obj_tag.exit

lean_obj_tag.exit:                                ; preds = %1
  %6 = and i64 %4, 8589934590
  %7 = icmp eq i64 %6, 0
  br i1 %7, label %lean_dec.exit27, label %16

lean_obj_tag.exit.thread:                         ; preds = %1
  %8 = getelementptr i8, ptr %3, i64 4
  %.val.i = load i32, ptr %8, align 4
  %9 = icmp ult i32 %.val.i, 16777216
  br i1 %9, label %.thread, label %16

.thread:                                          ; preds = %lean_obj_tag.exit.thread
  %10 = load i32, ptr %3, align 4, !tbaa !10
  %11 = icmp sgt i32 %10, 1
  br i1 %11, label %12, label %14, !prof !13

12:                                               ; preds = %.thread
  %13 = add nsw i32 %10, -1
  store i32 %13, ptr %3, align 4, !tbaa !10
  br label %lean_dec.exit27

14:                                               ; preds = %.thread
  %.not.i = icmp eq i32 %10, 0
  br i1 %.not.i, label %lean_dec.exit27, label %15

15:                                               ; preds = %14
  tail call void @lean_dec_ref_cold(ptr noundef nonnull %3) #4
  br label %lean_dec.exit27

16:                                               ; preds = %lean_obj_tag.exit.thread, %lean_obj_tag.exit
  %17 = getelementptr inbounds nuw i8, ptr %3, i64 8
  %18 = load ptr, ptr %17, align 8, !tbaa !4
  %19 = ptrtoint ptr %18 to i64
  %20 = and i64 %19, 1
  %.not = icmp eq i64 %20, 0
  br i1 %.not, label %21, label %lean_inc.exit28

21:                                               ; preds = %16
  %.val.i40 = load i32, ptr %18, align 4, !tbaa !10
  %22 = icmp sgt i32 %.val.i40, 0
  br i1 %22, label %23, label %25, !prof !13

23:                                               ; preds = %21
  %24 = add nuw i32 %.val.i40, 1
  store i32 %24, ptr %18, align 4, !tbaa !10
  br label %lean_inc.exit28

25:                                               ; preds = %21
  %.not.i41 = icmp eq i32 %.val.i40, 0
  br i1 %.not.i41, label %lean_inc.exit28, label %26

26:                                               ; preds = %25
  tail call void @lean_inc_ref_cold(ptr noundef nonnull %18) #4
  br label %lean_inc.exit28

lean_inc.exit28:                                  ; preds = %26, %25, %23, %16
  br i1 %.not.i39, label %27, label %lean_dec.exit26

27:                                               ; preds = %lean_inc.exit28
  %28 = load i32, ptr %3, align 4, !tbaa !10
  %29 = icmp sgt i32 %28, 1
  br i1 %29, label %30, label %32, !prof !13

30:                                               ; preds = %27
  %31 = add nsw i32 %28, -1
  store i32 %31, ptr %3, align 4, !tbaa !10
  br label %lean_dec.exit26

32:                                               ; preds = %27
  %.not.i29 = icmp eq i32 %28, 0
  br i1 %.not.i29, label %lean_dec.exit26, label %33

33:                                               ; preds = %32
  tail call void @lean_dec_ref_cold(ptr noundef nonnull %3) #4
  br label %lean_dec.exit26

lean_dec.exit26:                                  ; preds = %33, %32, %30, %lean_inc.exit28
  %34 = load ptr, ptr @l___private_Lean_Data_Lsp_Communication_0__IO_FS_Stream_isLean3Request___closed__2, align 8, !tbaa !4
  br i1 %.not, label %35, label %lean_inc.exit

35:                                               ; preds = %lean_dec.exit26
  %.val.i42 = load i32, ptr %18, align 4, !tbaa !10
  %36 = icmp sgt i32 %.val.i42, 0
  br i1 %36, label %37, label %39, !prof !13

37:                                               ; preds = %35
  %38 = add nuw i32 %.val.i42, 1
  store i32 %38, ptr %18, align 4, !tbaa !10
  br label %lean_inc.exit

39:                                               ; preds = %35
  %.not.i43 = icmp eq i32 %.val.i42, 0
  br i1 %.not.i43, label %lean_inc.exit, label %40

40:                                               ; preds = %39
  tail call void @lean_inc_ref_cold(ptr noundef nonnull %18) #4
  br label %lean_inc.exit

lean_inc.exit:                                    ; preds = %40, %39, %37, %lean_dec.exit26
  %41 = tail call ptr @l_Lean_Json_getObjVal_x3f(ptr noundef %18, ptr noundef %34) #4
  %42 = ptrtoint ptr %41 to i64
  %43 = and i64 %42, 1
  %.not.i45 = icmp eq i64 %43, 0
  br i1 %.not.i45, label %lean_obj_tag.exit48.thread, label %lean_obj_tag.exit48

lean_obj_tag.exit48:                              ; preds = %lean_inc.exit
  %44 = and i64 %42, 8589934590
  %45 = icmp eq i64 %44, 0
  br i1 %45, label %lean_dec.exit25, label %lean_dec.exit23

lean_obj_tag.exit48.thread:                       ; preds = %lean_inc.exit
  %46 = getelementptr i8, ptr %41, i64 4
  %.val.i47 = load i32, ptr %46, align 4
  %47 = icmp ult i32 %.val.i47, 16777216
  %48 = load i32, ptr %41, align 4, !tbaa !10
  %49 = icmp sgt i32 %48, 1
  br i1 %47, label %.thread55, label %.thread56

.thread55:                                        ; preds = %lean_obj_tag.exit48.thread
  br i1 %49, label %50, label %52, !prof !13

50:                                               ; preds = %.thread55
  %51 = add nsw i32 %48, -1
  store i32 %51, ptr %41, align 4, !tbaa !10
  br label %lean_dec.exit25

52:                                               ; preds = %.thread55
  %.not.i31 = icmp eq i32 %48, 0
  br i1 %.not.i31, label %lean_dec.exit25, label %53

53:                                               ; preds = %52
  tail call void @lean_dec_ref_cold(ptr noundef nonnull %41) #4
  br label %lean_dec.exit25

lean_dec.exit25:                                  ; preds = %lean_obj_tag.exit48, %53, %52, %50
  br i1 %.not, label %54, label %lean_dec.exit27

54:                                               ; preds = %lean_dec.exit25
  %55 = load i32, ptr %18, align 4, !tbaa !10
  %56 = icmp sgt i32 %55, 1
  br i1 %56, label %57, label %59, !prof !13

57:                                               ; preds = %54
  %58 = add nsw i32 %55, -1
  store i32 %58, ptr %18, align 4, !tbaa !10
  br label %lean_dec.exit27

59:                                               ; preds = %54
  %.not.i33 = icmp eq i32 %55, 0
  br i1 %.not.i33, label %lean_dec.exit27, label %60

60:                                               ; preds = %59
  tail call void @lean_dec_ref_cold(ptr noundef nonnull %18) #4
  br label %lean_dec.exit27

.thread56:                                        ; preds = %lean_obj_tag.exit48.thread
  br i1 %49, label %61, label %63, !prof !13

61:                                               ; preds = %.thread56
  %62 = add nsw i32 %48, -1
  store i32 %62, ptr %41, align 4, !tbaa !10
  br label %lean_dec.exit23

63:                                               ; preds = %.thread56
  %.not.i35 = icmp eq i32 %48, 0
  br i1 %.not.i35, label %lean_dec.exit23, label %64

64:                                               ; preds = %63
  tail call void @lean_dec_ref_cold(ptr noundef nonnull %41) #4
  br label %lean_dec.exit23

lean_dec.exit23:                                  ; preds = %lean_obj_tag.exit48, %64, %63, %61
  %65 = load ptr, ptr @l___private_Lean_Data_Lsp_Communication_0__IO_FS_Stream_isLean3Request___closed__3, align 8, !tbaa !4
  %66 = tail call ptr @l_Lean_Json_getObjVal_x3f(ptr noundef %18, ptr noundef %65) #4
  %67 = ptrtoint ptr %66 to i64
  %68 = and i64 %67, 1
  %.not.i49 = icmp eq i64 %68, 0
  br i1 %.not.i49, label %71, label %lean_obj_tag.exit52.thread

lean_obj_tag.exit52.thread:                       ; preds = %lean_dec.exit23
  %69 = and i64 %67, 8589934590
  %70 = icmp eq i64 %69, 0
  br label %lean_dec.exit

71:                                               ; preds = %lean_dec.exit23
  %72 = getelementptr i8, ptr %66, i64 4
  %.val.i51 = load i32, ptr %72, align 4
  %73 = icmp ult i32 %.val.i51, 16777216
  %74 = load i32, ptr %66, align 4, !tbaa !10
  %75 = icmp sgt i32 %74, 1
  br i1 %75, label %76, label %78, !prof !13

76:                                               ; preds = %71
  %77 = add nsw i32 %74, -1
  store i32 %77, ptr %66, align 4, !tbaa !10
  br label %lean_dec.exit

78:                                               ; preds = %71
  %.not.i37 = icmp eq i32 %74, 0
  br i1 %.not.i37, label %lean_dec.exit, label %79

79:                                               ; preds = %78
  tail call void @lean_dec_ref_cold(ptr noundef nonnull %66) #4
  br label %lean_dec.exit

lean_dec.exit:                                    ; preds = %79, %78, %76, %lean_obj_tag.exit52.thread
  %80 = phi i1 [ %70, %lean_obj_tag.exit52.thread ], [ %73, %76 ], [ %73, %78 ], [ %73, %79 ]
  %not. = xor i1 %80, true
  %. = zext i1 %not. to i8
  br label %lean_dec.exit27

lean_dec.exit27:                                  ; preds = %lean_obj_tag.exit, %lean_dec.exit25, %57, %59, %60, %12, %14, %15, %lean_dec.exit
  %.0 = phi i8 [ %., %lean_dec.exit ], [ 0, %15 ], [ 0, %14 ], [ 0, %12 ], [ 0, %60 ], [ 0, %59 ], [ 0, %57 ], [ 0, %lean_dec.exit25 ], [ 0, %lean_obj_tag.exit ]
  ret i8 %.0
}